; Function Attrs: mustprogress uwtable
define hidden noundef zeroext i1 @_ZN3mbp20arith_project_pluginclER5modelR10ref_vectorI3app11ast_managerERS3_I4exprS5_E(ptr nocapture noundef nonnull readonly align 8 dereferenceable(152) %this, ptr noundef nonnull align 8 dereferenceable(160) %model, ptr noundef nonnull align 8 dereferenceable(16) %vars, ptr noundef nonnull align 8 dereferenceable(16) %lits) unnamed_addr #3 align 2 personality ptr @__gxx_personality_v0 {
entry:
  %defs = alloca %class.vector.54, align 8
  store ptr null, ptr %defs, align 8
  %m_imp = getelementptr inbounds i8, ptr %this, i64 144
  %0 = load ptr, ptr %m_imp, align 8
  %call = invoke noundef zeroext i1 @_ZN3mbp20arith_project_plugin3imp7projectER5modelR10ref_vectorI3app11ast_managerERS4_I4exprS6_ER6vectorINS_3defELb1EjEb(ptr noundef nonnull align 8 dereferenceable(26) %0, ptr noundef nonnull align 8 dereferenceable(160) %model, ptr noundef nonnull align 8 dereferenceable(16) %vars, ptr noundef nonnull align 8 dereferenceable(16) %lits, ptr noundef nonnull align 8 dereferenceable(8) %defs, i1 noundef zeroext false)
          to label %invoke.cont unwind label %lpad

invoke.cont:                                      ; preds = %entry
  %1 = load ptr, ptr %defs, align 8
  %tobool.not.i.i = icmp eq ptr %1, null
  br i1 %tobool.not.i.i, label %_ZN6vectorIN3mbp3defELb1EjED2Ev.exit, label %if.then.i.i

if.then.i.i:                                      ; preds = %invoke.cont
  invoke void @_ZN6vectorIN3mbp3defELb1EjE16destroy_elementsEv(ptr noundef nonnull align 8 dereferenceable(8) %defs)
          to label %.noexc.i unwind label %terminate.lpad.i

.noexc.i:                                         ; preds = %if.then.i.i
  %2 = load ptr, ptr %defs, align 8
  %add.ptr.i.i.i = getelementptr inbounds i8, ptr %2, i64 -8
  invoke void @_ZN6memory10deallocateEPv(ptr noundef nonnull %add.ptr.i.i.i)
          to label %_ZN6vectorIN3mbp3defELb1EjED2Ev.exit unwind label %terminate.lpad.i

terminate.lpad.i:                                 ; preds = %.noexc.i, %if.then.i.i
  %3 = landingpad { ptr, i32 }
          catch ptr null
  %4 = extractvalue { ptr, i32 } %3, 0
  call void @__clang_call_terminate(ptr %4) #20
  unreachable

_ZN6vectorIN3mbp3defELb1EjED2Ev.exit:             ; preds = %invoke.cont, %.noexc.i
  ret i1 %call

lpad:                                             ; preds = %entry
  %5 = landingpad { ptr, i32 }
          cleanup
  call void @_ZN6vectorIN3mbp3defELb1EjED2Ev(ptr noundef nonnull align 8 dereferenceable(8) %defs) #19
  resume { ptr, i32 } %5
}